target datalayout = "e-m:e-p270:32:32-p271:32:32-p272:64:64-i64:64-i128:128-f80:128-n8:16:32:64-S128"
target triple = "x86_64-pc-linux-gnu"

%union.SDL_Event = type { %struct.SDL_MouseWheelEvent, [72 x i8] }
%struct.SDL_MouseWheelEvent = type { i32, i32, i64, i32, i32, float, float, i32, float, float, i32, i32 }
%struct.SDL_KeyboardInstance = type { i32, ptr }
%struct.SDL_KeyboardDeviceEvent = type { i32, i32, i64, i32 }

@SDL_keyboards = internal global ptr null, align 8
@SDL_keyboard_count = internal global i32 0, align 4
@.str.1 = private unnamed_addr constant [1 x i8] zeroinitializer, align 1

; Function Attrs: nounwind uwtable
define internal i32 @SDL_GetKeyboardIndex(i32 noundef %0) #0 {
  %2 = alloca i32, align 4
  %3 = alloca i32, align 4
  %4 = alloca i32, align 4
  %5 = alloca i32, align 4
  store i32 %0, ptr %3, align 4
  call void @llvm.lifetime.start.p0(i64 4, ptr %4) #6
  store i32 0, ptr %4, align 4
  br label %6

6:                                                ; preds = %23, %1
  %7 = load i32, ptr %4, align 4
  %8 = load i32, ptr @SDL_keyboard_count, align 4
  %9 = icmp slt i32 %7, %8
  br i1 %9, label %11, label %10

10:                                               ; preds = %6
  store i32 2, ptr %5, align 4
  br label %26

11:                                               ; preds = %6
  %12 = load i32, ptr %3, align 4
  %13 = load ptr, ptr @SDL_keyboards, align 8
  %14 = load i32, ptr %4, align 4
  %15 = sext i32 %14 to i64
  %16 = getelementptr inbounds %struct.SDL_KeyboardInstance, ptr %13, i64 %15
  %17 = getelementptr inbounds nuw %struct.SDL_KeyboardInstance, ptr %16, i32 0, i32 0
  %18 = load i32, ptr %17, align 8
  %19 = icmp eq i32 %12, %18
  br i1 %19, label %20, label %22

20:                                               ; preds = %11
  %21 = load i32, ptr %4, align 4
  store i32 %21, ptr %2, align 4
  store i32 1, ptr %5, align 4
  br label %26

22:                                               ; preds = %11
  br label %23

23:                                               ; preds = %22
  %24 = load i32, ptr %4, align 4
  %25 = add nsw i32 %24, 1
  store i32 %25, ptr %4, align 4
  br label %6, !llvm.loop !5

26:                                               ; preds = %20, %10
  call void @llvm.lifetime.end.p0(i64 4, ptr %4) #6
  %27 = load i32, ptr %5, align 4
  switch i32 %27, label %31 [
    i32 2, label %28
    i32 1, label %29
  ]

28:                                               ; preds = %26
  store i32 -1, ptr %2, align 4
  br label %29

29:                                               ; preds = %28, %26
  %30 = load i32, ptr %2, align 4
  ret i32 %30

31:                                               ; preds = %26
  unreachable
}

; Function Attrs: nounwind uwtable
define hidden void @SDL_AddKeyboard(i32 noundef %0, ptr noundef %1, i1 noundef zeroext %2) #0 {
  %4 = alloca i32, align 4
  %5 = alloca ptr, align 8
  %6 = alloca i8, align 1
  %7 = alloca i32, align 4
  %8 = alloca i32, align 4
  %9 = alloca ptr, align 8
  %10 = alloca ptr, align 8
  %11 = alloca %union.SDL_Event, align 8
  store i32 %0, ptr %4, align 4
  store ptr %1, ptr %5, align 8
  %12 = zext i1 %2 to i8
  store i8 %12, ptr %6, align 1
  call void @llvm.lifetime.start.p0(i64 4, ptr %7) #6
  %13 = load i32, ptr %4, align 4
  %14 = call i32 @SDL_GetKeyboardIndex(i32 noundef %13)
  store i32 %14, ptr %7, align 4
  %15 = load i32, ptr %7, align 4
  %16 = icmp sge i32 %15, 0
  br i1 %16, label %17, label %18

17:                                               ; preds = %3
  store i32 1, ptr %8, align 4
  br label %60

18:                                               ; preds = %3
  br label %19

19:                                               ; preds = %18
  br label %20

20:                                               ; preds = %19
  br label %21

21:                                               ; preds = %20
  call void @llvm.lifetime.start.p0(i64 8, ptr %9) #6
  %22 = load ptr, ptr @SDL_keyboards, align 8
  %23 = load i32, ptr @SDL_keyboard_count, align 4
  %24 = add nsw i32 %23, 1
  %25 = sext i32 %24 to i64
  %26 = mul i64 %25, 16
  %27 = call ptr @SDL_realloc_REAL(ptr noundef %22, i64 noundef %26) #7
  store ptr %27, ptr %9, align 8
  %28 = load ptr, ptr %9, align 8
  %29 = icmp ne ptr %28, null
  br i1 %29, label %31, label %30

30:                                               ; preds = %21
  store i32 1, ptr %8, align 4
  br label %59

31:                                               ; preds = %21
  call void @llvm.lifetime.start.p0(i64 8, ptr %10) #6
  %32 = load ptr, ptr %9, align 8
  %33 = load i32, ptr @SDL_keyboard_count, align 4
  %34 = sext i32 %33 to i64
  %35 = getelementptr inbounds %struct.SDL_KeyboardInstance, ptr %32, i64 %34
  store ptr %35, ptr %10, align 8
  %36 = load i32, ptr %4, align 4
  %37 = load ptr, ptr %10, align 8
  %38 = getelementptr inbounds nuw %struct.SDL_KeyboardInstance, ptr %37, i32 0, i32 0
  store i32 %36, ptr %38, align 8
  %39 = load ptr, ptr %5, align 8
  %40 = icmp ne ptr %39, null
  br i1 %40, label %41, label %43

41:                                               ; preds = %31
  %42 = load ptr, ptr %5, align 8
  br label %44

43:                                               ; preds = %31
  br label %44

44:                                               ; preds = %43, %41
  %45 = phi ptr [ %42, %41 ], [ @.str.1, %43 ]
  %46 = call noalias ptr @SDL_strdup_REAL(ptr noundef %45)
  %47 = load ptr, ptr %10, align 8
  %48 = getelementptr inbounds nuw %struct.SDL_KeyboardInstance, ptr %47, i32 0, i32 1
  store ptr %46, ptr %48, align 8
  %49 = load ptr, ptr %9, align 8
  store ptr %49, ptr @SDL_keyboards, align 8
  %50 = load i32, ptr @SDL_keyboard_count, align 4
  %51 = add nsw i32 %50, 1
  store i32 %51, ptr @SDL_keyboard_count, align 4
  %52 = load i8, ptr %6, align 1, !range !3, !noundef !4
  %53 = trunc i8 %52 to i1
  br i1 %53, label %54, label %58

54:                                               ; preds = %44
  call void @llvm.lifetime.start.p0(i64 128, ptr %11) #6
  call void @llvm.memset.p0.i64(ptr align 8 %11, i8 0, i64 128, i1 false)
  store i32 773, ptr %11, align 8
  %55 = load i32, ptr %4, align 4
  %56 = getelementptr inbounds nuw %struct.SDL_KeyboardDeviceEvent, ptr %11, i32 0, i32 3
  store i32 %55, ptr %56, align 8
  %57 = call zeroext i1 @SDL_PushEvent_REAL(ptr noundef %11)
  call void @llvm.lifetime.end.p0(i64 128, ptr %11) #6
  br label %58

58:                                               ; preds = %54, %44
  call void @llvm.lifetime.end.p0(i64 8, ptr %10) #6
  store i32 0, ptr %8, align 4
  br label %59

59:                                               ; preds = %58, %30
  call void @llvm.lifetime.end.p0(i64 8, ptr %9) #6
  br label %60

60:                                               ; preds = %59, %17
  call void @llvm.lifetime.end.p0(i64 4, ptr %7) #6
  %61 = load i32, ptr %8, align 4
  switch i32 %61, label %63 [
    i32 0, label %62
    i32 1, label %62
  ]

62:                                               ; preds = %60, %60
  ret void

63:                                               ; preds = %60
  unreachable
}